target datalayout = "e-m:e-p270:32:32-p271:32:32-p272:64:64-i64:64-i128:128-f80:128-n8:16:32:64-S128"
target triple = "x86_64-pc-linux-gnu"

; Function Attrs: inlinehint nounwind uwtable
define internal i64 @Int16GetDatum(i16 noundef signext %0) #2 {
  %2 = alloca i16, align 2
  store i16 %0, ptr %2, align 2
  %3 = load i16, ptr %2, align 2
  %4 = sext i16 %3 to i64
  ret i64 %4
}

; Function Attrs: inlinehint nounwind uwtable
define internal i64 @ObjectIdGetDatum(i32 noundef %0) #2 {
  %2 = alloca i32, align 4
  store i32 %0, ptr %2, align 4
  %3 = load i32, ptr %2, align 4
  %4 = zext i32 %3 to i64
  ret i64 %4
}

; Function Attrs: nounwind uwtable
define dso_local zeroext i1 @gistproperty(i32 noundef %0, i32 noundef %1, i32 noundef %2, ptr noundef %3, ptr noundef %4, ptr noundef %5) #0 {
  %7 = alloca i1, align 1
  %8 = alloca i32, align 4
  %9 = alloca i32, align 4
  %10 = alloca i32, align 4
  %11 = alloca ptr, align 8
  %12 = alloca ptr, align 8
  %13 = alloca ptr, align 8
  %14 = alloca i32, align 4
  %15 = alloca i32, align 4
  %16 = alloca i32, align 4
  %17 = alloca i16, align 2
  %18 = alloca i32, align 4
  store i32 %0, ptr %8, align 4
  store i32 %1, ptr %9, align 4
  store i32 %2, ptr %10, align 4
  store ptr %3, ptr %11, align 8
  store ptr %4, ptr %12, align 8
  store ptr %5, ptr %13, align 8
  call void @llvm.lifetime.start.p0(i64 4, ptr %14) #8
  call void @llvm.lifetime.start.p0(i64 4, ptr %15) #8
  call void @llvm.lifetime.start.p0(i64 4, ptr %16) #8
  call void @llvm.lifetime.start.p0(i64 2, ptr %17) #8
  %19 = load i32, ptr %9, align 4
  %20 = icmp eq i32 %19, 0
  br i1 %20, label %21, label %22

21:                                               ; preds = %6
  store i1 false, ptr %7, align 1
  store i32 1, ptr %18, align 4
  br label %72

22:                                               ; preds = %6
  %23 = load i32, ptr %10, align 4
  switch i32 %23, label %26 [
    i32 6, label %24
    i32 7, label %25
  ]

24:                                               ; preds = %22
  store i16 8, ptr %17, align 2
  br label %27

25:                                               ; preds = %22
  store i16 9, ptr %17, align 2
  br label %27

26:                                               ; preds = %22
  store i1 false, ptr %7, align 1
  store i32 1, ptr %18, align 4
  br label %72

27:                                               ; preds = %25, %24
  %28 = load i32, ptr %8, align 4
  %29 = load i32, ptr %9, align 4
  %30 = call i32 @get_index_column_opclass(i32 noundef %28, i32 noundef %29)
  store i32 %30, ptr %14, align 4
  %31 = load i32, ptr %14, align 4
  %32 = icmp ne i32 %31, 0
  br i1 %32, label %35, label %33

33:                                               ; preds = %27
  %34 = load ptr, ptr %13, align 8
  store i8 1, ptr %34, align 1
  store i1 true, ptr %7, align 1
  store i32 1, ptr %18, align 4
  br label %72

35:                                               ; preds = %27
  %36 = load i32, ptr %14, align 4
  %37 = call zeroext i1 @get_opclass_opfamily_and_input_type(i32 noundef %36, ptr noundef %15, ptr noundef %16)
  br i1 %37, label %40, label %38

38:                                               ; preds = %35
  %39 = load ptr, ptr %13, align 8
  store i8 1, ptr %39, align 1
  store i1 true, ptr %7, align 1
  store i32 1, ptr %18, align 4
  br label %72

40:                                               ; preds = %35
  %41 = load i32, ptr %15, align 4
  %42 = call i64 @ObjectIdGetDatum(i32 noundef %41)
  %43 = load i32, ptr %16, align 4
  %44 = call i64 @ObjectIdGetDatum(i32 noundef %43)
  %45 = load i32, ptr %16, align 4
  %46 = call i64 @ObjectIdGetDatum(i32 noundef %45)
  %47 = load i16, ptr %17, align 2
  %48 = call i64 @Int16GetDatum(i16 noundef signext %47)
  %49 = call zeroext i1 @SearchSysCacheExists(i32 noundef 5, i64 noundef %42, i64 noundef %44, i64 noundef %46, i64 noundef %48)
  %50 = load ptr, ptr %12, align 8
  %51 = zext i1 %49 to i8
  store i8 %51, ptr %50, align 1
  %52 = load i32, ptr %10, align 4
  %53 = icmp eq i32 %52, 7
  br i1 %53, label %54, label %70

54:                                               ; preds = %40
  %55 = load ptr, ptr %12, align 8
  %56 = load i8, ptr %55, align 1, !range !11, !noundef !12
  %57 = trunc i8 %56 to i1
  br i1 %57, label %70, label %58

58:                                               ; preds = %54
  %59 = load i32, ptr %15, align 4
  %60 = call i64 @ObjectIdGetDatum(i32 noundef %59)
  %61 = load i32, ptr %16, align 4
  %62 = call i64 @ObjectIdGetDatum(i32 noundef %61)
  %63 = load i32, ptr %16, align 4
  %64 = call i64 @ObjectIdGetDatum(i32 noundef %63)
  %65 = call i64 @Int16GetDatum(i16 noundef signext 3)
  %66 = call zeroext i1 @SearchSysCacheExists(i32 noundef 5, i64 noundef %60, i64 noundef %62, i64 noundef %64, i64 noundef %65)
  %67 = xor i1 %66, true
  %68 = load ptr, ptr %12, align 8
  %69 = zext i1 %67 to i8
  store i8 %69, ptr %68, align 1
  br label %70

70:                                               ; preds = %58, %54, %40
  %71 = load ptr, ptr %13, align 8
  store i8 0, ptr %71, align 1
  store i1 true, ptr %7, align 1
  store i32 1, ptr %18, align 4
  br label %72

72:                                               ; preds = %70, %38, %33, %26, %21
  call void @llvm.lifetime.end.p0(i64 2, ptr %17) #8
  call void @llvm.lifetime.end.p0(i64 4, ptr %16) #8
  call void @llvm.lifetime.end.p0(i64 4, ptr %15) #8
  call void @llvm.lifetime.end.p0(i64 4, ptr %14) #8
  %73 = load i1, ptr %7, align 1
  ret i1 %73
}