; Function Attrs: nounwind uwtable
define dso_local noundef zeroext i1 @gistproperty(i32 noundef %0, i32 noundef %1, i32 noundef %2, ptr noundef readnone captures(none) %3, ptr noundef writeonly captures(none) %4, ptr noundef writeonly captures(none) %5) local_unnamed_addr #0 {
  %7 = alloca i32, align 4
  %8 = alloca i32, align 4
  call void @llvm.lifetime.start.p0(i64 4, ptr nonnull %7) #11
  call void @llvm.lifetime.start.p0(i64 4, ptr nonnull %8) #11
  %9 = icmp eq i32 %1, 0
  br i1 %9, label %32, label %10

10:                                               ; preds = %6
  switch i32 %2, label %32 [
    i32 6, label %12
    i32 7, label %11
  ]

11:                                               ; preds = %10
  br label %12

12:                                               ; preds = %10, %11
  %.0 = phi i64 [ 9, %11 ], [ 8, %10 ]
  %13 = tail call i32 @get_index_column_opclass(i32 noundef %0, i32 noundef %1) #11
  %.not = icmp eq i32 %13, 0
  br i1 %.not, label %.sink.split, label %14

14:                                               ; preds = %12
  %15 = call zeroext i1 @get_opclass_opfamily_and_input_type(i32 noundef %13, ptr noundef nonnull %7, ptr noundef nonnull %8) #11
  br i1 %15, label %16, label %.sink.split

16:                                               ; preds = %14
  %17 = load i32, ptr %7, align 4
  %18 = zext i32 %17 to i64
  %19 = load i32, ptr %8, align 4
  %20 = zext i32 %19 to i64
  %21 = call zeroext i1 @SearchSysCacheExists(i32 noundef 5, i64 noundef %18, i64 noundef %20, i64 noundef %20, i64 noundef %.0) #11
  %22 = zext i1 %21 to i8
  store i8 %22, ptr %4, align 1
  %23 = icmp ne i32 %2, 7
  %brmerge = select i1 %23, i1 true, i1 %21
  br i1 %brmerge, label %.sink.split, label %24

24:                                               ; preds = %16
  %25 = load i32, ptr %7, align 4
  %26 = zext i32 %25 to i64
  %27 = load i32, ptr %8, align 4
  %28 = zext i32 %27 to i64
  %29 = call zeroext i1 @SearchSysCacheExists(i32 noundef 5, i64 noundef %26, i64 noundef %28, i64 noundef %28, i64 noundef 3) #11
  %30 = xor i1 %29, true
  %31 = zext i1 %30 to i8
  store i8 %31, ptr %4, align 1
  br label %.sink.split

.sink.split:                                      ; preds = %24, %16, %14, %12
  %.sink = phi i8 [ 1, %12 ], [ 1, %14 ], [ 0, %16 ], [ 0, %24 ]
  store i8 %.sink, ptr %5, align 1
  br label %32

32:                                               ; preds = %.sink.split, %10, %6
  %.014 = phi i1 [ false, %6 ], [ false, %10 ], [ true, %.sink.split ]
  call void @llvm.lifetime.end.p0(i64 4, ptr nonnull %8) #11
  call void @llvm.lifetime.end.p0(i64 4, ptr nonnull %7) #11
  ret i1 %.014
}